target datalayout = "e-m:e-p270:32:32-p271:32:32-p272:64:64-i64:64-i128:128-f80:128-n8:16:32:64-S128"
target triple = "x86_64-pc-linux-gnu"

%class.PaddedEnd = type { %class.PaddedEndImpl }
%class.PaddedEndImpl = type { %class.PSPromotionManager, [112 x i8] }
%class.PSPromotionManager = type { %class.PSYoungPromotionLAB, %class.PSOldPromotionLAB, i8, i8, %class.OverflowTaskQueue, i32, i32, i32, ptr, %class.PromotionFailedInfo, %"class.StringDedup::Requests" }
%class.PSYoungPromotionLAB = type { %class.PSPromotionLAB.base, [4 x i8] }
%class.PSPromotionLAB.base = type <{ ptr, ptr, ptr, ptr, i32 }>
%class.PSOldPromotionLAB = type { %class.PSPromotionLAB.base, ptr }
%class.OverflowTaskQueue = type { %class.GenericTaskQueue, %class.Stack }
%class.GenericTaskQueue = type { %class.TaskQueueSuper, ptr, [120 x i8], i32, i32, [120 x i8] }
%class.TaskQueueSuper = type { [128 x i8], i32, [124 x i8], %"class.TaskQueueSuper<131072, MEMFLAGS::mtGC>::Age", [120 x i8] }
%"class.TaskQueueSuper<131072, MEMFLAGS::mtGC>::Age" = type { %union.anon }
%union.anon = type { i64 }
%class.Stack = type { ptr, %class.StackBase, ptr, ptr }
%class.StackBase = type { i64, i64, i64, i64, i64, i64 }
%class.PromotionFailedInfo = type { %class.CopyFailedInfo.base, i64 }
%class.CopyFailedInfo.base = type <{ ptr, i64, i64, i64, i32 }>
%"class.StringDedup::Requests" = type <{ ptr, ptr, i64, i8, [7 x i8] }>
%class.PSYoungGen = type { ptr, %class.MemRegion, ptr, ptr, ptr, ptr, i64, i64, ptr, ptr, ptr, ptr }
%class.MemRegion = type { ptr, i64 }
%class.CopyFailedInfo = type <{ ptr, i64, i64, i64, i32, [4 x i8] }>
%class.PSOldGen = type { ptr, ptr, %class.ObjectStartArray, ptr, ptr, ptr, i64, i64 }
%class.ObjectStartArray = type { [8 x i8], %class.PSVirtualSpace, ptr }
%class.PSVirtualSpace = type <{ ptr, i64, ptr, ptr, ptr, ptr, i8, [7 x i8] }>
%class.MutableSpace = type { ptr, %class.MemRegion, i64, ptr, ptr, ptr }

@_ZN18PSPromotionManager14_manager_arrayE = hidden global ptr null, align 8
@_ZN18PSPromotionManager20_preserved_marks_setE = hidden global ptr null, align 8
@_ZN18PSPromotionManager8_old_genE = hidden global ptr null, align 8
@_ZN18PSPromotionManager12_young_spaceE = hidden global ptr null, align 8
@ParallelGCThreads = external global i32, align 4
@_ZN8Universe14_collectedHeapE = external global ptr, align 8
@_ZN20ParallelScavengeHeap10_young_genE = external global ptr, align 8

; Function Attrs: mustprogress nounwind uwtable
define linkonce_odr hidden void @_ZN14CopyFailedInfo5resetEv(ptr noundef nonnull align 8 dereferenceable(36) %0) unnamed_addr #1 comdat align 2 {
  %2 = alloca ptr, align 8
  store ptr %0, ptr %2, align 8
  %3 = load ptr, ptr %2, align 8
  %4 = getelementptr inbounds %class.CopyFailedInfo, ptr %3, i32 0, i32 1
  store i64 0, ptr %4, align 8
  %5 = getelementptr inbounds %class.CopyFailedInfo, ptr %3, i32 0, i32 2
  store i64 0, ptr %5, align 8
  %6 = getelementptr inbounds %class.CopyFailedInfo, ptr %3, i32 0, i32 3
  store i64 0, ptr %6, align 8
  %7 = getelementptr inbounds %class.CopyFailedInfo, ptr %3, i32 0, i32 4
  store i32 0, ptr %7, align 8
  ret void
}

; Function Attrs: mustprogress nounwind uwtable
define linkonce_odr hidden noundef ptr @_ZN8Universe4heapEv() #1 comdat align 2 {
  %1 = load ptr, ptr @_ZN8Universe14_collectedHeapE, align 8
  ret ptr %1
}

; Function Attrs: mustprogress nounwind uwtable
define linkonce_odr hidden void @_ZN19PromotionFailedInfo5resetEv(ptr noundef nonnull align 8 dereferenceable(48) %0) unnamed_addr #1 comdat align 2 {
  %2 = alloca ptr, align 8
  store ptr %0, ptr %2, align 8
  %3 = load ptr, ptr %2, align 8
  call void @_ZN14CopyFailedInfo5resetEv(ptr noundef nonnull align 8 dereferenceable(36) %3)
  %4 = getelementptr inbounds %class.PromotionFailedInfo, ptr %3, i32 0, i32 1
  store i64 0, ptr %4, align 8
  ret void
}

; Function Attrs: mustprogress nounwind uwtable
define linkonce_odr hidden noundef ptr @_ZNK8PSOldGen12object_spaceEv(ptr noundef nonnull align 8 dereferenceable(128) %0) #1 comdat align 2 {
  %2 = alloca ptr, align 8
  store ptr %0, ptr %2, align 8
  %3 = load ptr, ptr %2, align 8
  %4 = getelementptr inbounds %class.PSOldGen, ptr %3, i32 0, i32 3
  %5 = load ptr, ptr %4, align 8
  ret ptr %5
}

; Function Attrs: mustprogress nounwind uwtable
define linkonce_odr hidden noundef ptr @_ZN18PSPromotionManager7old_genEv() #1 comdat align 2 {
  %1 = load ptr, ptr @_ZN18PSPromotionManager8_old_genE, align 8
  ret ptr %1
}

; Function Attrs: mustprogress nounwind uwtable
define linkonce_odr hidden void @_ZN9MemRegionC2EPP12HeapWordImplm(ptr noundef nonnull align 8 dereferenceable(16) %0, ptr noundef %1, i64 noundef %2) unnamed_addr #1 comdat align 2 {
  %4 = alloca ptr, align 8
  %5 = alloca ptr, align 8
  %6 = alloca i64, align 8
  store ptr %0, ptr %4, align 8
  store ptr %1, ptr %5, align 8
  store i64 %2, ptr %6, align 8
  %7 = load ptr, ptr %4, align 8
  %8 = getelementptr inbounds %class.MemRegion, ptr %7, i32 0, i32 0
  %9 = load ptr, ptr %5, align 8
  store ptr %9, ptr %8, align 8
  %10 = getelementptr inbounds %class.MemRegion, ptr %7, i32 0, i32 1
  %11 = load i64, ptr %6, align 8
  store i64 %11, ptr %10, align 8
  ret void
}

; Function Attrs: mustprogress nounwind uwtable
define linkonce_odr hidden noundef ptr @_ZNK12MutableSpace3topEv(ptr noundef nonnull align 8 dereferenceable(56) %0) #1 comdat align 2 {
  %2 = alloca ptr, align 8
  store ptr %0, ptr %2, align 8
  %3 = load ptr, ptr %2, align 8
  %4 = getelementptr inbounds %class.MutableSpace, ptr %3, i32 0, i32 4
  %5 = load volatile ptr, ptr %4, align 8
  ret ptr %5
}

; Function Attrs: mustprogress nounwind uwtable
define linkonce_odr hidden noundef ptr @_ZN18PSPromotionManager11young_spaceEv() #1 comdat align 2 {
  %1 = load ptr, ptr @_ZN18PSPromotionManager12_young_spaceE, align 8
  ret ptr %1
}

; Function Attrs: mustprogress nounwind uwtable
define linkonce_odr hidden noundef ptr @_ZN13CollectedHeap10named_heapI20ParallelScavengeHeapEEPT_NS_4NameE(i32 noundef %0) #1 comdat align 2 {
  %2 = alloca i32, align 4
  %3 = alloca ptr, align 8
  store i32 %0, ptr %2, align 4
  %4 = call noundef ptr @_ZN8Universe4heapEv()
  store ptr %4, ptr %3, align 8
  %5 = load ptr, ptr %3, align 8
  ret ptr %5
}

; Function Attrs: mustprogress nounwind uwtable
define hidden void @_ZN18PSPromotionManager5resetEv(ptr noundef nonnull align 8 dereferenceable(912) %0) #1 align 2 {
  %2 = alloca ptr, align 8
  %3 = alloca ptr, align 8
  %4 = alloca %class.MemRegion, align 8
  %5 = alloca %class.MemRegion, align 8
  store ptr %0, ptr %2, align 8
  %6 = load ptr, ptr %2, align 8
  %7 = call noundef ptr @_ZN18PSPromotionManager11young_spaceEv()
  %8 = call noundef ptr @_ZNK12MutableSpace3topEv(ptr noundef nonnull align 8 dereferenceable(56) %7)
  store ptr %8, ptr %3, align 8
  %9 = getelementptr inbounds %class.PSPromotionManager, ptr %6, i32 0, i32 0
  %10 = load ptr, ptr %3, align 8
  call void @_ZN9MemRegionC2EPP12HeapWordImplm(ptr noundef nonnull align 8 dereferenceable(16) %4, ptr noundef %10, i64 noundef 0)
  %11 = getelementptr inbounds { ptr, i64 }, ptr %4, i32 0, i32 0
  %12 = load ptr, ptr %11, align 8
  %13 = getelementptr inbounds { ptr, i64 }, ptr %4, i32 0, i32 1
  %14 = load i64, ptr %13, align 8
  call void @_ZN14PSPromotionLAB10initializeE9MemRegion(ptr noundef nonnull align 8 dereferenceable(36) %9, ptr %12, i64 %14)
  %15 = getelementptr inbounds %class.PSPromotionManager, ptr %6, i32 0, i32 2
  store i8 0, ptr %15, align 8
  %16 = call noundef ptr @_ZN18PSPromotionManager7old_genEv()
  %17 = call noundef ptr @_ZNK8PSOldGen12object_spaceEv(ptr noundef nonnull align 8 dereferenceable(128) %16)
  %18 = call noundef ptr @_ZNK12MutableSpace3topEv(ptr noundef nonnull align 8 dereferenceable(56) %17)
  store ptr %18, ptr %3, align 8
  %19 = getelementptr inbounds %class.PSPromotionManager, ptr %6, i32 0, i32 1
  %20 = load ptr, ptr %3, align 8
  call void @_ZN9MemRegionC2EPP12HeapWordImplm(ptr noundef nonnull align 8 dereferenceable(16) %5, ptr noundef %20, i64 noundef 0)
  %21 = getelementptr inbounds { ptr, i64 }, ptr %5, i32 0, i32 0
  %22 = load ptr, ptr %21, align 8
  %23 = getelementptr inbounds { ptr, i64 }, ptr %5, i32 0, i32 1
  %24 = load i64, ptr %23, align 8
  call void @_ZN14PSPromotionLAB10initializeE9MemRegion(ptr noundef nonnull align 8 dereferenceable(36) %19, ptr %22, i64 %24)
  %25 = getelementptr inbounds %class.PSPromotionManager, ptr %6, i32 0, i32 3
  store i8 0, ptr %25, align 1
  %26 = getelementptr inbounds %class.PSPromotionManager, ptr %6, i32 0, i32 9
  call void @_ZN19PromotionFailedInfo5resetEv(ptr noundef nonnull align 8 dereferenceable(48) %26)
  ret void
}

; Function Attrs: mustprogress nounwind uwtable
define linkonce_odr hidden noundef ptr @_ZN18PSPromotionManager13manager_arrayEj(i32 noundef %0) #1 comdat align 2 {
  %2 = alloca i32, align 4
  store i32 %0, ptr %2, align 4
  %3 = load ptr, ptr @_ZN18PSPromotionManager14_manager_arrayE, align 8
  %4 = load i32, ptr %2, align 4
  %5 = zext i32 %4 to i64
  %6 = getelementptr inbounds %class.PaddedEnd, ptr %3, i64 %5
  ret ptr %6
}

; Function Attrs: mustprogress nounwind uwtable
define linkonce_odr hidden noundef ptr @_ZNK10PSYoungGen8to_spaceEv(ptr noundef nonnull align 8 dereferenceable(104) %0) #1 comdat align 2 {
  %2 = alloca ptr, align 8
  store ptr %0, ptr %2, align 8
  %3 = load ptr, ptr %2, align 8
  %4 = getelementptr inbounds %class.PSYoungGen, ptr %3, i32 0, i32 5
  %5 = load ptr, ptr %4, align 8
  ret ptr %5
}

; Function Attrs: mustprogress nounwind uwtable
define linkonce_odr hidden noundef ptr @_ZN20ParallelScavengeHeap9young_genEv() #1 comdat align 2 {
  %1 = load ptr, ptr @_ZN20ParallelScavengeHeap10_young_genE, align 8
  ret ptr %1
}

; Function Attrs: mustprogress nounwind uwtable
define linkonce_odr hidden void @_ZN17PreservedMarksSet12assert_emptyEv(ptr noundef nonnull align 8 dereferenceable(16) %0) #1 comdat align 2 {
  %2 = alloca ptr, align 8
  store ptr %0, ptr %2, align 8
  ret void
}

; Function Attrs: mustprogress nounwind uwtable
define linkonce_odr hidden noundef ptr @_ZN20ParallelScavengeHeap4heapEv() #1 comdat align 2 {
  %1 = call noundef ptr @_ZN13CollectedHeap10named_heapI20ParallelScavengeHeapEEPT_NS_4NameE(i32 noundef 2)
  ret ptr %1
}

; Function Attrs: mustprogress nounwind uwtable
define hidden void @_ZN18PSPromotionManager12pre_scavengeEv() #1 align 2 {
  %1 = alloca ptr, align 8
  %2 = alloca i32, align 4
  %3 = call noundef ptr @_ZN20ParallelScavengeHeap4heapEv()
  store ptr %3, ptr %1, align 8
  %4 = load ptr, ptr @_ZN18PSPromotionManager20_preserved_marks_setE, align 8
  call void @_ZN17PreservedMarksSet12assert_emptyEv(ptr noundef nonnull align 8 dereferenceable(16) %4)
  %5 = call noundef ptr @_ZN20ParallelScavengeHeap9young_genEv()
  %6 = call noundef ptr @_ZNK10PSYoungGen8to_spaceEv(ptr noundef nonnull align 8 dereferenceable(104) %5)
  store ptr %6, ptr @_ZN18PSPromotionManager12_young_spaceE, align 8
  store i32 0, ptr %2, align 4
  br label %7

7:                                                ; preds = %14, %0
  %8 = load i32, ptr %2, align 4
  %9 = load i32, ptr @ParallelGCThreads, align 4
  %10 = icmp ult i32 %8, %9
  br i1 %10, label %11, label %17

11:                                               ; preds = %7
  %12 = load i32, ptr %2, align 4
  %13 = call noundef ptr @_ZN18PSPromotionManager13manager_arrayEj(i32 noundef %12)
  call void @_ZN18PSPromotionManager5resetEv(ptr noundef nonnull align 8 dereferenceable(912) %13)
  br label %14

14:                                               ; preds = %11
  %15 = load i32, ptr %2, align 4
  %16 = add i32 %15, 1
  store i32 %16, ptr %2, align 4
  br label %7, !llvm.loop !11

17:                                               ; preds = %7
  ret void
}