; Function Attrs: mustprogress nounwind uwtable
define hidden void @_ZN18PSPromotionManager12pre_scavengeEv() local_unnamed_addr #0 align 2 {
  %1 = load ptr, ptr @_ZN20ParallelScavengeHeap10_young_genE, align 8
  %2 = getelementptr inbounds i8, ptr %1, i64 48
  %3 = load ptr, ptr %2, align 8
  store ptr %3, ptr @_ZN18PSPromotionManager12_young_spaceE, align 8
  %4 = load i32, ptr @ParallelGCThreads, align 4
  %.not = icmp eq i32 %4, 0
  br i1 %.not, label %._crit_edge, label %.lr.ph

.lr.ph:                                           ; preds = %0, %.lr.ph
  %indvars.iv = phi i64 [ %indvars.iv.next, %.lr.ph ], [ 0, %0 ]
  %5 = load ptr, ptr @_ZN18PSPromotionManager14_manager_arrayE, align 8
  %6 = getelementptr inbounds %class.PaddedEnd, ptr %5, i64 %indvars.iv
  %7 = load ptr, ptr @_ZN18PSPromotionManager12_young_spaceE, align 8
  %8 = getelementptr inbounds i8, ptr %7, i64 40
  %9 = load volatile ptr, ptr %8, align 8
  tail call void @_ZN14PSPromotionLAB10initializeE9MemRegion(ptr noundef nonnull align 8 dereferenceable(36) %6, ptr %9, i64 0) #12
  %10 = getelementptr inbounds i8, ptr %6, i64 88
  store i8 0, ptr %10, align 8
  %11 = load ptr, ptr @_ZN18PSPromotionManager8_old_genE, align 8
  %12 = getelementptr inbounds i8, ptr %11, i64 88
  %13 = load ptr, ptr %12, align 8
  %14 = getelementptr inbounds i8, ptr %13, i64 40
  %15 = load volatile ptr, ptr %14, align 8
  %16 = getelementptr inbounds i8, ptr %6, i64 40
  tail call void @_ZN14PSPromotionLAB10initializeE9MemRegion(ptr noundef nonnull align 8 dereferenceable(36) %16, ptr %15, i64 0) #12
  %17 = getelementptr inbounds i8, ptr %6, i64 89
  store i8 0, ptr %17, align 1
  %18 = getelementptr inbounds i8, ptr %6, i64 840
  tail call void @llvm.memset.p0.i64(ptr noundef nonnull align 8 dereferenceable(28) %18, i8 0, i64 28, i1 false)
  %19 = getelementptr inbounds i8, ptr %6, i64 872
  store i64 0, ptr %19, align 8
  %indvars.iv.next = add nuw nsw i64 %indvars.iv, 1
  %20 = load i32, ptr @ParallelGCThreads, align 4
  %21 = zext i32 %20 to i64
  %22 = icmp ult i64 %indvars.iv.next, %21
  br i1 %22, label %.lr.ph, label %._crit_edge, !llvm.loop !11

._crit_edge:                                      ; preds = %.lr.ph, %0
  ret void
}